; ModuleID = '8/746.cpp'
source_filename = "8/746.cpp"
target datalayout = "e-m:e-p270:32:32-p271:32:32-p272:64:64-i64:64-f80:128-n8:16:32:64-S128"
target triple = "x86_64-pc-linux-gnu"

%"class.std::ios_base::Init" = type { i8 }
%"class.std::basic_istream" = type { i32 (...)**, i64, %"class.std::basic_ios" }
%"class.std::basic_ios" = type { %"class.std::ios_base", %"class.std::basic_ostream"*, i8, i8, %"class.std::basic_streambuf"*, %"class.std::ctype"*, %"class.std::num_put"*, %"class.std::num_get"* }
%"class.std::ios_base" = type { i32 (...)**, i64, i64, i32, i32, i32, %"struct.std::ios_base::_Callback_list"*, %"struct.std::ios_base::_Words", [8 x %"struct.std::ios_base::_Words"], i32, %"struct.std::ios_base::_Words"*, %"class.std::locale" }
%"struct.std::ios_base::_Callback_list" = type { %"struct.std::ios_base::_Callback_list"*, void (i32, %"class.std::ios_base"*, i32)*, i32, i32 }
%"struct.std::ios_base::_Words" = type { i8*, i64 }
%"class.std::locale" = type { %"class.std::locale::_Impl"* }
%"class.std::locale::_Impl" = type { i32, %"class.std::locale::facet"**, i64, %"class.std::locale::facet"**, i8** }
%"class.std::locale::facet" = type <{ i32 (...)**, i32, [4 x i8] }>
%"class.std::basic_ostream" = type { i32 (...)**, %"class.std::basic_ios" }
%"class.std::basic_streambuf" = type { i32 (...)**, i8*, i8*, i8*, i8*, i8*, i8*, %"class.std::locale" }
%"class.std::ctype" = type <{ %"class.std::locale::facet.base", [4 x i8], %struct.__locale_struct*, i8, [7 x i8], i32*, i32*, i16*, i8, [256 x i8], [256 x i8], i8, [6 x i8] }>
%"class.std::locale::facet.base" = type <{ i32 (...)**, i32 }>
%struct.__locale_struct = type { [13 x %struct.__locale_data*], i16*, i32*, i32*, [13 x i8*] }
%struct.__locale_data = type opaque
%"class.std::num_put" = type { %"class.std::locale::facet.base", [4 x i8] }
%"class.std::num_get" = type { %"class.std::locale::facet.base", [4 x i8] }

@_ZStL8__ioinit = internal global %"class.std::ios_base::Init" zeroinitializer, align 1
@__dso_handle = external hidden global i8
@t = dso_local global i32 0, align 4
@i = dso_local global i32 0, align 4
@j = dso_local global i32 0, align 4
@a = dso_local global [1000 x i32] zeroinitializer, align 16
@b = dso_local global [1000 x i32] zeroinitializer, align 16
@_ZSt3cin = external dso_local global %"class.std::basic_istream", align 8
@_ZSt4cout = external dso_local global %"class.std::basic_ostream", align 8
@llvm.global_ctors = appending global [1 x { i32, void ()*, i8* }] [{ i32, void ()*, i8* } { i32 65535, void ()* @_GLOBAL__sub_I_746.cpp, i8* null }]

; Function Attrs: noinline uwtable
define internal void @__cxx_global_var_init() #0 section ".text.startup" {
  call void @_ZNSt8ios_base4InitC1Ev(%"class.std::ios_base::Init"* @_ZStL8__ioinit)
  %1 = call i32 @__cxa_atexit(void (i8*)* bitcast (void (%"class.std::ios_base::Init"*)* @_ZNSt8ios_base4InitD1Ev to void (i8*)*), i8* getelementptr inbounds (%"class.std::ios_base::Init", %"class.std::ios_base::Init"* @_ZStL8__ioinit, i32 0, i32 0), i8* @__dso_handle) #3
  ret void
}

declare dso_local void @_ZNSt8ios_base4InitC1Ev(%"class.std::ios_base::Init"*) unnamed_addr #1

; Function Attrs: nounwind
declare dso_local void @_ZNSt8ios_base4InitD1Ev(%"class.std::ios_base::Init"*) unnamed_addr #2

; Function Attrs: nounwind
declare dso_local i32 @__cxa_atexit(void (i8*)*, i8*, i8*) #3

; Function Attrs: noinline norecurse uwtable
define dso_local i32 @main() #4 {
  %1 = alloca i32, align 4
  %2 = alloca i32, align 4
  %3 = alloca i32, align 4
  store i32 0, i32* %1, align 4
  %4 = call dereferenceable(280) %"class.std::basic_istream"* @_ZNSirsERi(%"class.std::basic_istream"* @_ZSt3cin, i32* dereferenceable(4) %2)
  %5 = call dereferenceable(280) %"class.std::basic_istream"* @_ZNSirsERi(%"class.std::basic_istream"* %4, i32* dereferenceable(4) %3)
  %6 = load i32, i32* %2, align 4
  %7 = call i32 @_Z6readiniPi(i32 %6, i32* getelementptr inbounds ([1000 x i32], [1000 x i32]* @a, i64 0, i64 0))
  %8 = load i32, i32* %2, align 4
  %9 = call i32 @_Z2pxiPi(i32 %8, i32* getelementptr inbounds ([1000 x i32], [1000 x i32]* @a, i64 0, i64 0))
  %10 = load i32, i32* %3, align 4
  %11 = call i32 @_Z6readiniPi(i32 %10, i32* getelementptr inbounds ([1000 x i32], [1000 x i32]* @b, i64 0, i64 0))
  %12 = load i32, i32* %3, align 4
  %13 = call i32 @_Z2pxiPi(i32 %12, i32* getelementptr inbounds ([1000 x i32], [1000 x i32]* @b, i64 0, i64 0))
  %14 = load i32, i32* %2, align 4
  %15 = load i32, i32* %3, align 4
  %16 = call i32 @_Z2sciPiiS_(i32 %14, i32* getelementptr inbounds ([1000 x i32], [1000 x i32]* @a, i64 0, i64 0), i32 %15, i32* getelementptr inbounds ([1000 x i32], [1000 x i32]* @b, i64 0, i64 0))
  ret i32 0
}

declare dso_local dereferenceable(280) %"class.std::basic_istream"* @_ZNSirsERi(%"class.std::basic_istream"*, i32* dereferenceable(4)) #1

; Function Attrs: noinline uwtable
define dso_local i32 @_Z6readiniPi(i32 %0, i32* %1) #0 {
  %3 = alloca i32, align 4
  %4 = alloca i32*, align 8
  store i32 %0, i32* %3, align 4
  store i32* %1, i32** %4, align 8
  %5 = load i32*, i32** %4, align 8
  %6 = bitcast i32* %5 to i8*
  call void @llvm.memset.p0i8.i64(i8* align 4 %6, i8 0, i64 8, i1 false)
  store i32 1, i32* @i, align 4
  br label %7

7:                                                ; preds = %17, %2
  %8 = load i32, i32* @i, align 4
  %9 = load i32, i32* %3, align 4
  %10 = icmp sle i32 %8, %9
  br i1 %10, label %11, label %20

11:                                               ; preds = %7
  %12 = load i32*, i32** %4, align 8
  %13 = load i32, i32* @i, align 4
  %14 = sext i32 %13 to i64
  %15 = getelementptr inbounds i32, i32* %12, i64 %14
  %16 = call dereferenceable(280) %"class.std::basic_istream"* @_ZNSirsERi(%"class.std::basic_istream"* @_ZSt3cin, i32* dereferenceable(4) %15)
  br label %17

17:                                               ; preds = %11
  %18 = load i32, i32* @i, align 4
  %19 = add nsw i32 %18, 1
  store i32 %19, i32* @i, align 4
  br label %7

20:                                               ; preds = %7
  call void @llvm.trap()
  unreachable
}

; Function Attrs: noinline nounwind uwtable
define dso_local i32 @_Z2pxiPi(i32 %0, i32* %1) #5 {
  %3 = alloca i32, align 4
  %4 = alloca i32*, align 8
  store i32 %0, i32* %3, align 4
  store i32* %1, i32** %4, align 8
  store i32 1, i32* @i, align 4
  br label %5

5:                                                ; preds = %53, %2
  %6 = load i32, i32* @i, align 4
  %7 = load i32, i32* %3, align 4
  %8 = icmp slt i32 %6, %7
  br i1 %8, label %9, label %56

9:                                                ; preds = %5
  %10 = load i32, i32* @i, align 4
  %11 = add nsw i32 %10, 1
  store i32 %11, i32* @j, align 4
  br label %12

12:                                               ; preds = %49, %9
  %13 = load i32, i32* @j, align 4
  %14 = load i32, i32* %3, align 4
  %15 = icmp sle i32 %13, %14
  br i1 %15, label %16, label %52

16:                                               ; preds = %12
  %17 = load i32*, i32** %4, align 8
  %18 = load i32, i32* @i, align 4
  %19 = sext i32 %18 to i64
  %20 = getelementptr inbounds i32, i32* %17, i64 %19
  %21 = load i32, i32* %20, align 4
  %22 = load i32*, i32** %4, align 8
  %23 = load i32, i32* @j, align 4
  %24 = sext i32 %23 to i64
  %25 = getelementptr inbounds i32, i32* %22, i64 %24
  %26 = load i32, i32* %25, align 4
  %27 = icmp sgt i32 %21, %26
  br i1 %27, label %28, label %48

28:                                               ; preds = %16
  %29 = load i32*, i32** %4, align 8
  %30 = load i32, i32* @i, align 4
  %31 = sext i32 %30 to i64
  %32 = getelementptr inbounds i32, i32* %29, i64 %31
  %33 = load i32, i32* %32, align 4
  store i32 %33, i32* @t, align 4
  %34 = load i32*, i32** %4, align 8
  %35 = load i32, i32* @j, align 4
  %36 = sext i32 %35 to i64
  %37 = getelementptr inbounds i32, i32* %34, i64 %36
  %38 = load i32, i32* %37, align 4
  %39 = load i32*, i32** %4, align 8
  %40 = load i32, i32* @i, align 4
  %41 = sext i32 %40 to i64
  %42 = getelementptr inbounds i32, i32* %39, i64 %41
  store i32 %38, i32* %42, align 4
  %43 = load i32, i32* @t, align 4
  %44 = load i32*, i32** %4, align 8
  %45 = load i32, i32* @j, align 4
  %46 = sext i32 %45 to i64
  %47 = getelementptr inbounds i32, i32* %44, i64 %46
  store i32 %43, i32* %47, align 4
  br label %48

48:                                               ; preds = %28, %16
  br label %49

49:                                               ; preds = %48
  %50 = load i32, i32* @j, align 4
  %51 = add nsw i32 %50, 1
  store i32 %51, i32* @j, align 4
  br label %12

52:                                               ; preds = %12
  br label %53

53:                                               ; preds = %52
  %54 = load i32, i32* @i, align 4
  %55 = add nsw i32 %54, 1
  store i32 %55, i32* @i, align 4
  br label %5

56:                                               ; preds = %5
  call void @llvm.trap()
  unreachable
}

; Function Attrs: noinline uwtable
define dso_local i32 @_Z2sciPiiS_(i32 %0, i32* %1, i32 %2, i32* %3) #0 {
  %5 = alloca i32, align 4
  %6 = alloca i32*, align 8
  %7 = alloca i32, align 4
  %8 = alloca i32*, align 8
  %9 = alloca i32, align 4
  %10 = alloca i32, align 4
  store i32 %0, i32* %5, align 4
  store i32* %1, i32** %6, align 8
  store i32 %2, i32* %7, align 4
  store i32* %3, i32** %8, align 8
  store i32 1, i32* %9, align 4
  br label %11

11:                                               ; preds = %23, %4
  %12 = load i32, i32* %9, align 4
  %13 = load i32, i32* %5, align 4
  %14 = icmp sle i32 %12, %13
  br i1 %14, label %15, label %26

15:                                               ; preds = %11
  %16 = load i32*, i32** %6, align 8
  %17 = load i32, i32* %9, align 4
  %18 = sext i32 %17 to i64
  %19 = getelementptr inbounds i32, i32* %16, i64 %18
  %20 = load i32, i32* %19, align 4
  %21 = call dereferenceable(272) %"class.std::basic_ostream"* @_ZNSolsEi(%"class.std::basic_ostream"* @_ZSt4cout, i32 %20)
  %22 = call dereferenceable(272) %"class.std::basic_ostream"* @_ZStlsISt11char_traitsIcEERSt13basic_ostreamIcT_ES5_c(%"class.std::basic_ostream"* dereferenceable(272) %21, i8 signext 32)
  br label %23

23:                                               ; preds = %15
  %24 = load i32, i32* %9, align 4
  %25 = add nsw i32 %24, 1
  store i32 %25, i32* %9, align 4
  br label %11

26:                                               ; preds = %11
  store i32 1, i32* %10, align 4
  br label %27

27:                                               ; preds = %40, %26
  %28 = load i32, i32* %10, align 4
  %29 = load i32, i32* %7, align 4
  %30 = sub nsw i32 %29, 1
  %31 = icmp sle i32 %28, %30
  br i1 %31, label %32, label %43

32:                                               ; preds = %27
  %33 = load i32*, i32** %8, align 8
  %34 = load i32, i32* %10, align 4
  %35 = sext i32 %34 to i64
  %36 = getelementptr inbounds i32, i32* %33, i64 %35
  %37 = load i32, i32* %36, align 4
  %38 = call dereferenceable(272) %"class.std::basic_ostream"* @_ZNSolsEi(%"class.std::basic_ostream"* @_ZSt4cout, i32 %37)
  %39 = call dereferenceable(272) %"class.std::basic_ostream"* @_ZStlsISt11char_traitsIcEERSt13basic_ostreamIcT_ES5_c(%"class.std::basic_ostream"* dereferenceable(272) %38, i8 signext 32)
  br label %40

40:                                               ; preds = %32
  %41 = load i32, i32* %10, align 4
  %42 = add nsw i32 %41, 1
  store i32 %42, i32* %10, align 4
  br label %27

43:                                               ; preds = %27
  %44 = load i32*, i32** %8, align 8
  %45 = load i32, i32* %7, align 4
  %46 = sext i32 %45 to i64
  %47 = getelementptr inbounds i32, i32* %44, i64 %46
  %48 = load i32, i32* %47, align 4
  %49 = call dereferenceable(272) %"class.std::basic_ostream"* @_ZNSolsEi(%"class.std::basic_ostream"* @_ZSt4cout, i32 %48)
  call void @llvm.trap()
  unreachable
}

; Function Attrs: argmemonly nounwind willreturn
declare void @llvm.memset.p0i8.i64(i8* nocapture writeonly, i8, i64, i1 immarg) #6

; Function Attrs: cold noreturn nounwind
declare void @llvm.trap() #7

declare dso_local dereferenceable(272) %"class.std::basic_ostream"* @_ZStlsISt11char_traitsIcEERSt13basic_ostreamIcT_ES5_c(%"class.std::basic_ostream"* dereferenceable(272), i8 signext) #1

declare dso_local dereferenceable(272) %"class.std::basic_ostream"* @_ZNSolsEi(%"class.std::basic_ostream"*, i32) #1

; Function Attrs: noinline uwtable
define internal void @_GLOBAL__sub_I_746.cpp() #0 section ".text.startup" {
  call void @__cxx_global_var_init()
  ret void
}


!llvm.module.flags = !{!0}
!llvm.ident = !{!1}

!0 = !{i32 1, !"wchar_size", i32 4}
!1 = !{!"clang version 10.0.0-4ubuntu1 "}
