; ModuleID = 'source-C-CXX/7/746.cpp'
source_filename = "source-C-CXX/7/746.cpp"
target datalayout = "e-m:e-p270:32:32-p271:32:32-p272:64:64-i64:64-f80:128-n8:16:32:64-S128"
target triple = "x86_64-pc-linux-gnu"

%"class.std::ios_base::Init" = type { i8 }
%"class.std::basic_istream" = type { i32 (...)**, i64, %"class.std::basic_ios" }
%"class.std::basic_ios" = type { %"class.std::ios_base", %"class.std::basic_ostream"*, i8, i8, %"class.std::basic_streambuf"*, %"class.std::ctype"*, %"class.std::num_put"*, %"class.std::num_get"* }
%"class.std::ios_base" = type { i32 (...)**, i64, i64, i32, i32, i32, %"struct.std::ios_base::_Callback_list"*, %"struct.std::ios_base::_Words", [8 x %"struct.std::ios_base::_Words"], i32, %"struct.std::ios_base::_Words"*, %"class.std::locale" }
%"struct.std::ios_base::_Callback_list" = type { %"struct.std::ios_base::_Callback_list"*, void (i32, %"class.std::ios_base"*, i32)*, i32, i32 }
%"struct.std::ios_base::_Words" = type { i8*, i64 }
%"class.std::locale" = type { %"class.std::locale::_Impl"* }
%"class.std::locale::_Impl" = type { i32, %"class.std::locale::facet"**, i64, %"class.std::locale::facet"**, i8** }
%"class.std::locale::facet" = type <{ i32 (...)**, i32, [4 x i8] }>
%"class.std::basic_ostream" = type { i32 (...)**, %"class.std::basic_ios" }
%"class.std::basic_streambuf" = type { i32 (...)**, i8*, i8*, i8*, i8*, i8*, i8*, %"class.std::locale" }
%"class.std::ctype" = type <{ %"class.std::locale::facet.base", [4 x i8], %struct.__locale_struct*, i8, [7 x i8], i32*, i32*, i16*, i8, [256 x i8], [256 x i8], i8, [6 x i8] }>
%"class.std::locale::facet.base" = type <{ i32 (...)**, i32 }>
%struct.__locale_struct = type { [13 x %struct.__locale_data*], i16*, i32*, i32*, [13 x i8*] }
%struct.__locale_data = type opaque
%"class.std::num_put" = type { %"class.std::locale::facet.base", [4 x i8] }
%"class.std::num_get" = type { %"class.std::locale::facet.base", [4 x i8] }

@_ZStL8__ioinit = internal global %"class.std::ios_base::Init" zeroinitializer, align 1
@__dso_handle = external hidden global i8
@t = dso_local local_unnamed_addr global i32 0, align 4
@i = dso_local local_unnamed_addr global i32 0, align 4
@j = dso_local local_unnamed_addr global i32 0, align 4
@a = dso_local global [1000 x i32] zeroinitializer, align 16
@b = dso_local local_unnamed_addr global [1000 x i32] zeroinitializer, align 16
@_ZSt3cin = external global %"class.std::basic_istream", align 8
@_ZSt4cout = external global %"class.std::basic_ostream", align 8
@llvm.global_ctors = appending global [1 x { i32, void ()*, i8* }] [{ i32, void ()*, i8* } { i32 65535, void ()* @_GLOBAL__sub_I_746.cpp, i8* null }]

declare void @_ZNSt8ios_base4InitC1Ev(%"class.std::ios_base::Init"* nonnull align 1 dereferenceable(1)) unnamed_addr #0

; Function Attrs: nounwind
declare void @_ZNSt8ios_base4InitD1Ev(%"class.std::ios_base::Init"* nonnull align 1 dereferenceable(1)) unnamed_addr #1

; Function Attrs: nofree nounwind
declare i32 @__cxa_atexit(void (i8*)*, i8*, i8*) local_unnamed_addr #2

; Function Attrs: mustprogress norecurse noreturn sspstrong uwtable
define dso_local i32 @main() local_unnamed_addr #3 {
  %1 = alloca i32, align 4
  %2 = alloca i32, align 4
  %3 = bitcast i32* %1 to i8*
  call void @llvm.lifetime.start.p0i8(i64 4, i8* nonnull %3) #9
  %4 = bitcast i32* %2 to i8*
  call void @llvm.lifetime.start.p0i8(i64 4, i8* nonnull %4) #9
  %5 = call nonnull align 8 dereferenceable(16) %"class.std::basic_istream"* @_ZNSirsERi(%"class.std::basic_istream"* nonnull align 8 dereferenceable(16) @_ZSt3cin, i32* nonnull align 4 dereferenceable(4) %1)
  %6 = call nonnull align 8 dereferenceable(16) %"class.std::basic_istream"* @_ZNSirsERi(%"class.std::basic_istream"* nonnull align 8 dereferenceable(16) %5, i32* nonnull align 4 dereferenceable(4) %2)
  %7 = load i32, i32* %1, align 4, !tbaa !5
  store i64 0, i64* bitcast ([1000 x i32]* @a to i64*), align 16
  store i32 1, i32* @i, align 4, !tbaa !5
  br label %8

8:                                                ; preds = %8, %0
  %9 = phi i32 [ %15, %8 ], [ 1, %0 ]
  %10 = icmp sle i32 %9, %7
  call void @llvm.assume(i1 %10)
  %11 = sext i32 %9 to i64
  %12 = getelementptr inbounds [1000 x i32], [1000 x i32]* @a, i64 0, i64 %11
  %13 = call nonnull align 8 dereferenceable(16) %"class.std::basic_istream"* @_ZNSirsERi(%"class.std::basic_istream"* nonnull align 8 dereferenceable(16) @_ZSt3cin, i32* nonnull align 4 dereferenceable(4) %12)
  %14 = load i32, i32* @i, align 4, !tbaa !5
  %15 = add nsw i32 %14, 1
  store i32 %15, i32* @i, align 4, !tbaa !5
  br label %8, !llvm.loop !9
}

; Function Attrs: argmemonly mustprogress nofree nosync nounwind willreturn
declare void @llvm.lifetime.start.p0i8(i64 immarg, i8* nocapture) #4

declare nonnull align 8 dereferenceable(16) %"class.std::basic_istream"* @_ZNSirsERi(%"class.std::basic_istream"* nonnull align 8 dereferenceable(16), i32* nonnull align 4 dereferenceable(4)) local_unnamed_addr #0

; Function Attrs: mustprogress noreturn sspstrong uwtable
define dso_local i32 @_Z6readiniPi(i32 %0, i32* %1) local_unnamed_addr #5 {
  %3 = bitcast i32* %1 to i64*
  store i64 0, i64* %3, align 4
  store i32 1, i32* @i, align 4, !tbaa !5
  br label %4

4:                                                ; preds = %4, %2
  %5 = phi i32 [ %11, %4 ], [ 1, %2 ]
  %6 = icmp sle i32 %5, %0
  tail call void @llvm.assume(i1 %6)
  %7 = sext i32 %5 to i64
  %8 = getelementptr inbounds i32, i32* %1, i64 %7
  %9 = tail call nonnull align 8 dereferenceable(16) %"class.std::basic_istream"* @_ZNSirsERi(%"class.std::basic_istream"* nonnull align 8 dereferenceable(16) @_ZSt3cin, i32* nonnull align 4 dereferenceable(4) %8)
  %10 = load i32, i32* @i, align 4, !tbaa !5
  %11 = add nsw i32 %10, 1
  store i32 %11, i32* @i, align 4, !tbaa !5
  br label %4, !llvm.loop !9
}

; Function Attrs: mustprogress nofree noreturn nosync nounwind sspstrong uwtable
define dso_local i32 @_Z2pxiPi(i32 %0, i32* nocapture %1) local_unnamed_addr #6 {
  br label %3

3:                                                ; preds = %29, %2
  %4 = phi i32 [ 1, %2 ], [ %30, %29 ]
  store i32 %4, i32* @i, align 4, !tbaa !5
  %5 = icmp slt i32 %4, %0
  tail call void @llvm.assume(i1 %5)
  %6 = add nsw i32 %4, 1
  store i32 %6, i32* @j, align 4, !tbaa !5
  br label %7

7:                                                ; preds = %24, %3
  %8 = phi i32 [ %4, %3 ], [ %28, %24 ]
  %9 = phi i32 [ %6, %3 ], [ %26, %24 ]
  %10 = sext i32 %8 to i64
  %11 = getelementptr inbounds i32, i32* %1, i64 %10
  %12 = load i32, i32* %11, align 4, !tbaa !5
  %13 = sext i32 %9 to i64
  %14 = getelementptr inbounds i32, i32* %1, i64 %13
  %15 = load i32, i32* %14, align 4, !tbaa !5
  %16 = icmp sgt i32 %12, %15
  br i1 %16, label %17, label %24

17:                                               ; preds = %7
  store i32 %12, i32* @t, align 4, !tbaa !5
  %18 = load i32, i32* %14, align 4, !tbaa !5
  store i32 %18, i32* %11, align 4, !tbaa !5
  %19 = load i32, i32* @t, align 4, !tbaa !5
  %20 = load i32, i32* @j, align 4, !tbaa !5
  %21 = sext i32 %20 to i64
  %22 = getelementptr inbounds i32, i32* %1, i64 %21
  store i32 %19, i32* %22, align 4, !tbaa !5
  %23 = load i32, i32* @j, align 4, !tbaa !5
  br label %24

24:                                               ; preds = %7, %17
  %25 = phi i32 [ %9, %7 ], [ %23, %17 ]
  %26 = add nsw i32 %25, 1
  store i32 %26, i32* @j, align 4, !tbaa !5
  %27 = icmp slt i32 %25, %0
  %28 = load i32, i32* @i, align 4, !tbaa !5
  br i1 %27, label %7, label %29, !llvm.loop !11

29:                                               ; preds = %24
  %30 = add nsw i32 %28, 1
  br label %3, !llvm.loop !12
}

; Function Attrs: mustprogress noreturn sspstrong uwtable
define dso_local i32 @_Z2sciPiiS_(i32 %0, i32* nocapture readonly %1, i32 %2, i32* nocapture readonly %3) local_unnamed_addr #5 {
  %5 = alloca i8, align 1
  %6 = alloca i8, align 1
  %7 = icmp slt i32 %0, 1
  br i1 %7, label %11, label %8

8:                                                ; preds = %4
  %9 = add nuw i32 %0, 1
  %10 = zext i32 %9 to i64
  br label %15

11:                                               ; preds = %15, %4
  %12 = icmp sgt i32 %2, 1
  br i1 %12, label %13, label %23

13:                                               ; preds = %11
  %14 = zext i32 %2 to i64
  br label %28

15:                                               ; preds = %8, %15
  %16 = phi i64 [ 1, %8 ], [ %21, %15 ]
  %17 = getelementptr inbounds i32, i32* %1, i64 %16
  %18 = load i32, i32* %17, align 4, !tbaa !5
  %19 = call nonnull align 8 dereferenceable(8) %"class.std::basic_ostream"* @_ZNSolsEi(%"class.std::basic_ostream"* nonnull align 8 dereferenceable(8) @_ZSt4cout, i32 %18)
  call void @llvm.lifetime.start.p0i8(i64 1, i8* nonnull %6)
  store i8 32, i8* %6, align 1, !tbaa !13
  %20 = call nonnull align 8 dereferenceable(8) %"class.std::basic_ostream"* @_ZSt16__ostream_insertIcSt11char_traitsIcEERSt13basic_ostreamIT_T0_ES6_PKS3_l(%"class.std::basic_ostream"* nonnull align 8 dereferenceable(8) %19, i8* nonnull %6, i64 1)
  call void @llvm.lifetime.end.p0i8(i64 1, i8* nonnull %6)
  %21 = add nuw nsw i64 %16, 1
  %22 = icmp eq i64 %21, %10
  br i1 %22, label %11, label %15, !llvm.loop !14

23:                                               ; preds = %28, %11
  %24 = sext i32 %2 to i64
  %25 = getelementptr inbounds i32, i32* %3, i64 %24
  %26 = load i32, i32* %25, align 4, !tbaa !5
  %27 = call nonnull align 8 dereferenceable(8) %"class.std::basic_ostream"* @_ZNSolsEi(%"class.std::basic_ostream"* nonnull align 8 dereferenceable(8) @_ZSt4cout, i32 %26)
  unreachable

28:                                               ; preds = %13, %28
  %29 = phi i64 [ 1, %13 ], [ %34, %28 ]
  %30 = getelementptr inbounds i32, i32* %3, i64 %29
  %31 = load i32, i32* %30, align 4, !tbaa !5
  %32 = call nonnull align 8 dereferenceable(8) %"class.std::basic_ostream"* @_ZNSolsEi(%"class.std::basic_ostream"* nonnull align 8 dereferenceable(8) @_ZSt4cout, i32 %31)
  call void @llvm.lifetime.start.p0i8(i64 1, i8* nonnull %5)
  store i8 32, i8* %5, align 1, !tbaa !13
  %33 = call nonnull align 8 dereferenceable(8) %"class.std::basic_ostream"* @_ZSt16__ostream_insertIcSt11char_traitsIcEERSt13basic_ostreamIT_T0_ES6_PKS3_l(%"class.std::basic_ostream"* nonnull align 8 dereferenceable(8) %32, i8* nonnull %5, i64 1)
  call void @llvm.lifetime.end.p0i8(i64 1, i8* nonnull %5)
  %34 = add nuw nsw i64 %29, 1
  %35 = icmp eq i64 %34, %14
  br i1 %35, label %23, label %28, !llvm.loop !15
}

; Function Attrs: argmemonly mustprogress nofree nosync nounwind willreturn
declare void @llvm.lifetime.end.p0i8(i64 immarg, i8* nocapture) #4

declare nonnull align 8 dereferenceable(8) %"class.std::basic_ostream"* @_ZNSolsEi(%"class.std::basic_ostream"* nonnull align 8 dereferenceable(8), i32) local_unnamed_addr #0

declare nonnull align 8 dereferenceable(8) %"class.std::basic_ostream"* @_ZSt16__ostream_insertIcSt11char_traitsIcEERSt13basic_ostreamIT_T0_ES6_PKS3_l(%"class.std::basic_ostream"* nonnull align 8 dereferenceable(8), i8*, i64) local_unnamed_addr #0

; Function Attrs: sspstrong uwtable
define internal void @_GLOBAL__sub_I_746.cpp() #7 section ".text.startup" {
  tail call void @_ZNSt8ios_base4InitC1Ev(%"class.std::ios_base::Init"* nonnull align 1 dereferenceable(1) @_ZStL8__ioinit)
  %1 = tail call i32 @__cxa_atexit(void (i8*)* bitcast (void (%"class.std::ios_base::Init"*)* @_ZNSt8ios_base4InitD1Ev to void (i8*)*), i8* getelementptr inbounds (%"class.std::ios_base::Init", %"class.std::ios_base::Init"* @_ZStL8__ioinit, i64 0, i32 0), i8* nonnull @__dso_handle) #9
  ret void
}

; Function Attrs: inaccessiblememonly nofree nosync nounwind willreturn
declare void @llvm.assume(i1 noundef) #8


!llvm.module.flags = !{!0, !1, !2, !3}
!llvm.ident = !{!4}

!0 = !{i32 1, !"wchar_size", i32 4}
!1 = !{i32 7, !"PIC Level", i32 2}
!2 = !{i32 7, !"PIE Level", i32 2}
!3 = !{i32 7, !"uwtable", i32 1}
!4 = !{!"clang version 13.0.0"}
!5 = !{!6, !6, i64 0}
!6 = !{!"int", !7, i64 0}
!7 = !{!"omnipotent char", !8, i64 0}
!8 = !{!"Simple C++ TBAA"}
!9 = distinct !{!9, !10}
!10 = !{!"llvm.loop.mustprogress"}
!11 = distinct !{!11, !10}
!12 = distinct !{!12, !10}
!13 = !{!7, !7, i64 0}
!14 = distinct !{!14, !10}
!15 = distinct !{!15, !10}
